target datalayout = "e-m:e-p270:32:32-p271:32:32-p272:64:64-i64:64-i128:128-f80:128-n8:16:32:64-S128"
target triple = "x86_64-pc-linux-gnu"

%struct._lv_vector_draw_dsc_t = type { %struct._lv_vector_fill_dsc_t, %struct._lv_vector_stroke_dsc_t, %struct._lv_matrix_t, i32, %struct.lv_area_t }
%struct._lv_vector_fill_dsc_t = type { i32, %struct.lv_color32_t, i8, i32, %struct._lv_draw_image_dsc_t, %struct._lv_vector_gradient_t, %struct._lv_matrix_t }
%struct.lv_color32_t = type { i8, i8, i8, i8 }
%struct._lv_draw_image_dsc_t = type { %struct.lv_draw_dsc_base_t, ptr, %struct.lv_image_header_t, i32, i32, i32, i32, i32, %struct.lv_point_t, %struct.lv_color_t, i8, i8, i8, ptr, %struct.lv_area_t, i32, ptr }
%struct.lv_draw_dsc_base_t = type { ptr, i32, i32, i32, ptr, i64, ptr }
%struct.lv_image_header_t = type <{ i64, i32 }>
%struct.lv_point_t = type { i32, i32 }
%struct.lv_color_t = type { i8, i8, i8 }
%struct._lv_vector_gradient_t = type { i32, [2 x %struct.lv_gradient_stop_t], i16, float, float, float, float, float, float, float, i32 }
%struct.lv_gradient_stop_t = type { %struct.lv_color_t, i8, i8 }
%struct._lv_vector_stroke_dsc_t = type { i32, %struct.lv_color32_t, i8, float, %struct._lv_array_t, i32, i32, i16, %struct._lv_vector_gradient_t, %struct._lv_matrix_t }
%struct._lv_array_t = type { ptr, i32, i32, i32, i8 }
%struct._lv_matrix_t = type { [3 x [3 x float]] }
%struct.lv_area_t = type { i32, i32, i32, i32 }
%struct._lv_svg_render_obj = type { ptr, i32, ptr, %struct._lv_vector_draw_dsc_t, %struct._lv_matrix_t, ptr, ptr, ptr, ptr, ptr, ptr, ptr, ptr, ptr }
%struct._lv_vector_dsc_t = type { ptr, %struct._lv_vector_draw_dsc_t, %struct._lv_draw_vector_task_dsc_t }
%struct._lv_draw_vector_task_dsc_t = type { %struct.lv_draw_dsc_base_t, ptr }
%struct.lv_svg_render_viewport_t = type { %struct._lv_svg_render_obj, float, float, i8 }

; Function Attrs: nounwind uwtable
define internal void @_render_viewport(ptr noundef %0, ptr noundef %1, ptr noundef %2) #0 {
  %4 = alloca ptr, align 8
  %5 = alloca ptr, align 8
  %6 = alloca ptr, align 8
  %7 = alloca ptr, align 8
  %8 = alloca %struct.lv_area_t, align 4
  store ptr %0, ptr %4, align 8, !tbaa !3
  store ptr %1, ptr %5, align 8, !tbaa !3
  store ptr %2, ptr %6, align 8, !tbaa !3
  call void @llvm.lifetime.start.p0(i64 8, ptr %7) #8
  %9 = load ptr, ptr %4, align 8, !tbaa !3
  store ptr %9, ptr %7, align 8, !tbaa !3
  %10 = load ptr, ptr %5, align 8, !tbaa !3
  %11 = getelementptr inbounds nuw %struct._lv_vector_dsc_t, ptr %10, i32 0, i32 1
  %12 = getelementptr inbounds nuw %struct._lv_vector_draw_dsc_t, ptr %11, i32 0, i32 2
  %13 = load ptr, ptr %4, align 8, !tbaa !3
  %14 = getelementptr inbounds nuw %struct._lv_svg_render_obj, ptr %13, i32 0, i32 4
  call void @lv_matrix_multiply(ptr noundef %12, ptr noundef %14)
  %15 = load ptr, ptr %7, align 8, !tbaa !3
  %16 = getelementptr inbounds nuw %struct.lv_svg_render_viewport_t, ptr %15, i32 0, i32 3
  %17 = load i8, ptr %16, align 8, !tbaa !147, !range !34, !noundef !35
  %18 = trunc i8 %17 to i1
  br i1 %18, label %19, label %33

19:                                               ; preds = %3
  call void @llvm.lifetime.start.p0(i64 16, ptr %8) #8
  %20 = getelementptr inbounds nuw %struct.lv_area_t, ptr %8, i32 0, i32 0
  store i32 0, ptr %20, align 4, !tbaa !148
  %21 = getelementptr inbounds nuw %struct.lv_area_t, ptr %8, i32 0, i32 1
  store i32 0, ptr %21, align 4, !tbaa !149
  %22 = getelementptr inbounds nuw %struct.lv_area_t, ptr %8, i32 0, i32 2
  %23 = load ptr, ptr %7, align 8, !tbaa !3
  %24 = getelementptr inbounds nuw %struct.lv_svg_render_viewport_t, ptr %23, i32 0, i32 1
  %25 = load float, ptr %24, align 8, !tbaa !150
  %26 = fptosi float %25 to i32
  store i32 %26, ptr %22, align 4, !tbaa !151
  %27 = getelementptr inbounds nuw %struct.lv_area_t, ptr %8, i32 0, i32 3
  %28 = load ptr, ptr %7, align 8, !tbaa !3
  %29 = getelementptr inbounds nuw %struct.lv_svg_render_viewport_t, ptr %28, i32 0, i32 2
  %30 = load float, ptr %29, align 4, !tbaa !152
  %31 = fptosi float %30 to i32
  store i32 %31, ptr %27, align 4, !tbaa !153
  %32 = load ptr, ptr %5, align 8, !tbaa !3
  call void @lv_vector_clear_area(ptr noundef %32, ptr noundef %8)
  call void @llvm.lifetime.end.p0(i64 16, ptr %8) #8
  br label %33

33:                                               ; preds = %19, %3
  call void @llvm.lifetime.end.p0(i64 8, ptr %7) #8
  ret void
}