; Function Attrs: nounwind uwtable
define internal void @_render_viewport(ptr noundef %0, ptr noundef %1, ptr nocapture readnone %2) #0 {
  %4 = alloca %struct.lv_area_t, align 4
  %5 = getelementptr inbounds nuw i8, ptr %1, i64 392
  %6 = getelementptr inbounds nuw i8, ptr %0, i64 464
  tail call void @lv_matrix_multiply(ptr noundef nonnull %5, ptr noundef nonnull %6) #9
  %7 = getelementptr inbounds nuw i8, ptr %0, i64 584
  %8 = load i8, ptr %7, align 8, !tbaa !156, !range !131, !noundef !132
  %9 = trunc nuw i8 %8 to i1
  br i1 %9, label %10, label %20

10:                                               ; preds = %3
  call void @llvm.lifetime.start.p0(i64 16, ptr nonnull %4) #9
  store i32 0, ptr %4, align 4, !tbaa !157
  %11 = getelementptr inbounds nuw i8, ptr %4, i64 4
  store i32 0, ptr %11, align 4, !tbaa !158
  %12 = getelementptr inbounds nuw i8, ptr %4, i64 8
  %13 = getelementptr inbounds nuw i8, ptr %0, i64 576
  %14 = load float, ptr %13, align 8, !tbaa !159
  %15 = fptosi float %14 to i32
  store i32 %15, ptr %12, align 4, !tbaa !160
  %16 = getelementptr inbounds nuw i8, ptr %4, i64 12
  %17 = getelementptr inbounds nuw i8, ptr %0, i64 580
  %18 = load float, ptr %17, align 4, !tbaa !161
  %19 = fptosi float %18 to i32
  store i32 %19, ptr %16, align 4, !tbaa !162
  call void @lv_vector_clear_area(ptr noundef %1, ptr noundef nonnull %4) #9
  call void @llvm.lifetime.end.p0(i64 16, ptr nonnull %4) #9
  br label %20

20:                                               ; preds = %10, %3
  ret void
}